; Function Attrs: nounwind uwtable
define internal void @pointerHandleLeave(ptr readnone captures(none) %0, ptr readnone captures(none) %1, i32 noundef %2, ptr noundef %3) #0 {
  %.not = icmp eq ptr %3, null
  br i1 %.not, label %19, label %5

5:                                                ; preds = %4
  %6 = load ptr, ptr getelementptr inbounds nuw (i8, ptr @_glfw, i64 137504), align 8, !tbaa !180
  %7 = tail call ptr %6(ptr noundef nonnull %3) #20
  %.not9 = icmp eq ptr %7, getelementptr inbounds nuw (i8, ptr @_glfw, i64 134088)
  br i1 %.not9, label %8, label %19

8:                                                ; preds = %5
  %9 = load ptr, ptr getelementptr inbounds nuw (i8, ptr @_glfw, i64 137360), align 8, !tbaa !238
  %.not10 = icmp eq ptr %9, null
  br i1 %.not10, label %19, label %10

10:                                               ; preds = %8
  store i32 %2, ptr getelementptr inbounds nuw (i8, ptr @_glfw, i64 134132), align 4, !tbaa !251
  store ptr null, ptr getelementptr inbounds nuw (i8, ptr @_glfw, i64 137360), align 8, !tbaa !238
  store ptr null, ptr getelementptr inbounds nuw (i8, ptr @_glfw, i64 134120), align 8, !tbaa !359
  %11 = getelementptr inbounds nuw i8, ptr %9, i64 888
  %12 = load i32, ptr %11, align 8, !tbaa !255
  %.not11 = icmp eq i32 %12, 0
  br i1 %.not11, label %14, label %13

13:                                               ; preds = %10
  store i32 0, ptr %11, align 8, !tbaa !255
  tail call void @_glfwInputCursorEnter(ptr noundef nonnull %9, i32 noundef 0) #20
  br label %19

14:                                               ; preds = %10
  %15 = getelementptr inbounds nuw i8, ptr %9, i64 1120
  %16 = load i32, ptr %15, align 8, !tbaa !162
  %.not12 = icmp eq i32 %16, 0
  br i1 %.not12, label %19, label %17

17:                                               ; preds = %14
  %18 = getelementptr inbounds nuw i8, ptr %9, i64 1232
  store ptr null, ptr %18, align 8, !tbaa !358
  br label %19

19:                                               ; preds = %8, %14, %17, %13, %5, %4
  ret void
}